; Function Attrs: mustprogress nofree norecurse nosync nounwind willreturn memory(argmem: write) uwtable
define hidden void @_ZN6google8protobuf2io16ArrayInputStreamC2EPKvii(ptr noundef nonnull writeonly align 8 captures(none) dereferenceable(32) initializes((0, 32)) %0, ptr noundef %1, i32 noundef %2, i32 noundef %3) unnamed_addr #3 align 2 {
  store ptr getelementptr inbounds nuw inrange(-16, 48) (i8, ptr @_ZTVN6google8protobuf2io16ArrayInputStreamE, i64 16), ptr %0, align 8, !tbaa !3
  %5 = getelementptr inbounds nuw i8, ptr %0, i64 8
  store ptr %1, ptr %5, align 8, !tbaa !6
  %6 = getelementptr inbounds nuw i8, ptr %0, i64 16
  store i32 %2, ptr %6, align 8, !tbaa !13
  %7 = getelementptr inbounds nuw i8, ptr %0, i64 20
  %8 = icmp sgt i32 %3, 0
  %9 = select i1 %8, i32 %3, i32 %2
  store i32 %9, ptr %7, align 4, !tbaa !14
  %10 = getelementptr inbounds nuw i8, ptr %0, i64 24
  store i32 0, ptr %10, align 8, !tbaa !15
  %11 = getelementptr inbounds nuw i8, ptr %0, i64 28
  store i32 0, ptr %11, align 4, !tbaa !16
  ret void
}